target datalayout = "e-m:e-p270:32:32-p271:32:32-p272:64:64-i64:64-i128:128-f80:128-n8:16:32:64-S128"
target triple = "x86_64-pc-linux-gnu"

%struct.evp_test_st = type { %struct.stanza_st, ptr, i32, ptr, ptr, ptr, ptr, ptr, ptr, i32 }
%struct.stanza_st = type { ptr, ptr, i32, i32, i32, i32, i32, i32, [150 x %struct.pair_st], ptr, [32768 x i8] }
%struct.pair_st = type { ptr, ptr }
%struct.keygen_test_data_st = type { ptr, ptr, ptr, ptr, ptr, ptr, i64, ptr, i64, ptr, i64 }

@.str.29 = private unnamed_addr constant [27 x i8] c"../openssl/test/evp_test.c\00", align 1

; Function Attrs: inlinehint nounwind uwtable
define internal ptr @ossl_check_OPENSSL_STRING_freefunc_type(ptr noundef %0) #5 {
  %2 = alloca ptr, align 8
  store ptr %0, ptr %2, align 8, !tbaa !97
  %3 = load ptr, ptr %2, align 8, !tbaa !97
  ret ptr %3
}

; Function Attrs: inlinehint nounwind uwtable
define internal ptr @ossl_check_OPENSSL_STRING_sk_type(ptr noundef %0) #5 {
  %2 = alloca ptr, align 8
  store ptr %0, ptr %2, align 8, !tbaa !131
  %3 = load ptr, ptr %2, align 8, !tbaa !131
  ret ptr %3
}

; Function Attrs: nounwind uwtable
define internal void @ctrlfree(ptr noundef %0) #0 {
  %2 = alloca ptr, align 8
  store ptr %0, ptr %2, align 8, !tbaa !131
  %3 = load ptr, ptr %2, align 8, !tbaa !131
  %4 = call ptr @ossl_check_OPENSSL_STRING_sk_type(ptr noundef %3)
  %5 = call ptr @ossl_check_OPENSSL_STRING_freefunc_type(ptr noundef @openssl_free)
  call void @OPENSSL_sk_pop_free(ptr noundef %4, ptr noundef %5)
  ret void
}

; Function Attrs: nounwind uwtable
define internal void @keygen_test_cleanup(ptr noundef %0) #0 {
  %2 = alloca ptr, align 8
  %3 = alloca ptr, align 8
  store ptr %0, ptr %2, align 8, !tbaa !15
  call void @llvm.lifetime.start.p0(i64 8, ptr %3) #10
  %4 = load ptr, ptr %2, align 8, !tbaa !15
  %5 = getelementptr inbounds nuw %struct.evp_test_st, ptr %4, i32 0, i32 8
  %6 = load ptr, ptr %5, align 8, !tbaa !66
  store ptr %6, ptr %3, align 8, !tbaa !267
  %7 = load ptr, ptr %3, align 8, !tbaa !267
  %8 = getelementptr inbounds nuw %struct.keygen_test_data_st, ptr %7, i32 0, i32 3
  %9 = load ptr, ptr %8, align 8, !tbaa !272
  call void @ctrlfree(ptr noundef %9)
  %10 = load ptr, ptr %3, align 8, !tbaa !267
  %11 = getelementptr inbounds nuw %struct.keygen_test_data_st, ptr %10, i32 0, i32 4
  %12 = load ptr, ptr %11, align 8, !tbaa !273
  call void @ctrlfree(ptr noundef %12)
  %13 = load ptr, ptr %3, align 8, !tbaa !267
  %14 = getelementptr inbounds nuw %struct.keygen_test_data_st, ptr %13, i32 0, i32 2
  %15 = load ptr, ptr %14, align 8, !tbaa !274
  call void @CRYPTO_free(ptr noundef %15, ptr noundef @.str.29, i32 noundef 4210)
  %16 = load ptr, ptr %3, align 8, !tbaa !267
  %17 = getelementptr inbounds nuw %struct.keygen_test_data_st, ptr %16, i32 0, i32 0
  %18 = load ptr, ptr %17, align 8, !tbaa !269
  call void @CRYPTO_free(ptr noundef %18, ptr noundef @.str.29, i32 noundef 4211)
  %19 = load ptr, ptr %3, align 8, !tbaa !267
  %20 = getelementptr inbounds nuw %struct.keygen_test_data_st, ptr %19, i32 0, i32 1
  %21 = load ptr, ptr %20, align 8, !tbaa !271
  call void @CRYPTO_free(ptr noundef %21, ptr noundef @.str.29, i32 noundef 4212)
  %22 = load ptr, ptr %3, align 8, !tbaa !267
  %23 = getelementptr inbounds nuw %struct.keygen_test_data_st, ptr %22, i32 0, i32 5
  %24 = load ptr, ptr %23, align 8, !tbaa !275
  call void @CRYPTO_free(ptr noundef %24, ptr noundef @.str.29, i32 noundef 4213)
  %25 = load ptr, ptr %3, align 8, !tbaa !267
  %26 = getelementptr inbounds nuw %struct.keygen_test_data_st, ptr %25, i32 0, i32 7
  %27 = load ptr, ptr %26, align 8, !tbaa !276
  call void @CRYPTO_free(ptr noundef %27, ptr noundef @.str.29, i32 noundef 4214)
  %28 = load ptr, ptr %3, align 8, !tbaa !267
  %29 = getelementptr inbounds nuw %struct.keygen_test_data_st, ptr %28, i32 0, i32 9
  %30 = load ptr, ptr %29, align 8, !tbaa !277
  call void @CRYPTO_free(ptr noundef %30, ptr noundef @.str.29, i32 noundef 4215)
  %31 = load ptr, ptr %2, align 8, !tbaa !15
  %32 = getelementptr inbounds nuw %struct.evp_test_st, ptr %31, i32 0, i32 8
  %33 = load ptr, ptr %32, align 8, !tbaa !66
  call void @CRYPTO_free(ptr noundef %33, ptr noundef @.str.29, i32 noundef 4216)
  %34 = load ptr, ptr %2, align 8, !tbaa !15
  %35 = getelementptr inbounds nuw %struct.evp_test_st, ptr %34, i32 0, i32 8
  store ptr null, ptr %35, align 8, !tbaa !66
  call void @llvm.lifetime.end.p0(i64 8, ptr %3) #10
  ret void
}