; Function Attrs: nounwind uwtable
define internal void @keygen_test_cleanup(ptr noundef captures(none) %0) #1 {
  %2 = getelementptr inbounds nuw i8, ptr %0, i64 35272
  %3 = load ptr, ptr %2, align 8, !tbaa !20
  %4 = getelementptr inbounds nuw i8, ptr %3, i64 24
  %5 = load ptr, ptr %4, align 8, !tbaa !214
  tail call void @OPENSSL_sk_pop_free(ptr noundef %5, ptr noundef nonnull @openssl_free) #10
  %6 = getelementptr inbounds nuw i8, ptr %3, i64 32
  %7 = load ptr, ptr %6, align 8, !tbaa !216
  tail call void @OPENSSL_sk_pop_free(ptr noundef %7, ptr noundef nonnull @openssl_free) #10
  %8 = getelementptr inbounds nuw i8, ptr %3, i64 16
  %9 = load ptr, ptr %8, align 8, !tbaa !217
  tail call void @CRYPTO_free(ptr noundef %9, ptr noundef nonnull @.str.29, i32 noundef 4210) #10
  %10 = load ptr, ptr %3, align 8, !tbaa !218
  tail call void @CRYPTO_free(ptr noundef %10, ptr noundef nonnull @.str.29, i32 noundef 4211) #10
  %11 = getelementptr inbounds nuw i8, ptr %3, i64 8
  %12 = load ptr, ptr %11, align 8, !tbaa !219
  tail call void @CRYPTO_free(ptr noundef %12, ptr noundef nonnull @.str.29, i32 noundef 4212) #10
  %13 = getelementptr inbounds nuw i8, ptr %3, i64 40
  %14 = load ptr, ptr %13, align 8, !tbaa !220
  tail call void @CRYPTO_free(ptr noundef %14, ptr noundef nonnull @.str.29, i32 noundef 4213) #10
  %15 = getelementptr inbounds nuw i8, ptr %3, i64 56
  %16 = load ptr, ptr %15, align 8, !tbaa !221
  tail call void @CRYPTO_free(ptr noundef %16, ptr noundef nonnull @.str.29, i32 noundef 4214) #10
  %17 = getelementptr inbounds nuw i8, ptr %3, i64 72
  %18 = load ptr, ptr %17, align 8, !tbaa !222
  tail call void @CRYPTO_free(ptr noundef %18, ptr noundef nonnull @.str.29, i32 noundef 4215) #10
  %19 = load ptr, ptr %2, align 8, !tbaa !20
  tail call void @CRYPTO_free(ptr noundef %19, ptr noundef nonnull @.str.29, i32 noundef 4216) #10
  store ptr null, ptr %2, align 8, !tbaa !20
  ret void
}